target datalayout = "e-m:e-p270:32:32-p271:32:32-p272:64:64-i64:64-i128:128-f80:128-n8:16:32:64-S128"
target triple = "x86_64-pc-linux-gnu"

%struct.Amap_Lib_t_ = type { ptr, ptr, ptr, ptr, ptr, ptr, ptr, ptr, ptr, i32, i32, i32, ptr, i32, i32, ptr, ptr, ptr, ptr, ptr, ptr, i32 }

; Function Attrs: nounwind uwtable
define i32 @Amap_LibCreateVar(ptr noundef %0) #0 {
  %2 = alloca ptr, align 8
  %3 = alloca ptr, align 8
  store ptr %0, ptr %2, align 8, !tbaa !3
  call void @llvm.lifetime.start.p0(i64 8, ptr %3) #7
  %4 = load ptr, ptr %2, align 8, !tbaa !3
  %5 = getelementptr inbounds nuw %struct.Amap_Lib_t_, ptr %4, i32 0, i32 14
  store i32 256, ptr %5, align 4, !tbaa !34
  %6 = load ptr, ptr %2, align 8, !tbaa !3
  %7 = getelementptr inbounds nuw %struct.Amap_Lib_t_, ptr %6, i32 0, i32 14
  %8 = load i32, ptr %7, align 4, !tbaa !34
  %9 = sext i32 %8 to i64
  %10 = mul i64 24, %9
  %11 = call noalias ptr @malloc(i64 noundef %10) #9
  %12 = load ptr, ptr %2, align 8, !tbaa !3
  %13 = getelementptr inbounds nuw %struct.Amap_Lib_t_, ptr %12, i32 0, i32 12
  store ptr %11, ptr %13, align 8, !tbaa !35
  %14 = load ptr, ptr %2, align 8, !tbaa !3
  %15 = call ptr @Amap_LibCreateObj(ptr noundef %14)
  store ptr %15, ptr %3, align 8, !tbaa !36
  %16 = load ptr, ptr %2, align 8, !tbaa !3
  %17 = getelementptr inbounds nuw %struct.Amap_Lib_t_, ptr %16, i32 0, i32 12
  %18 = load ptr, ptr %17, align 8, !tbaa !35
  %19 = load i32, ptr %18, align 8
  %20 = and i32 %19, 16777215
  %21 = or i32 %20, 33554432
  store i32 %21, ptr %18, align 8
  %22 = load ptr, ptr %2, align 8, !tbaa !3
  %23 = getelementptr inbounds nuw %struct.Amap_Lib_t_, ptr %22, i32 0, i32 12
  %24 = load ptr, ptr %23, align 8, !tbaa !35
  %25 = load i32, ptr %24, align 8
  %26 = and i32 %25, -16711681
  %27 = or i32 %26, 65536
  store i32 %27, ptr %24, align 8
  call void @llvm.lifetime.end.p0(i64 8, ptr %3) #7
  ret i32 0
}