; Function Attrs: mustprogress nounwind willreturn uwtable
define noundef i32 @Amap_LibCreateVar(ptr noundef captures(none) initializes((88, 96), (100, 104)) %0) local_unnamed_addr #1 {
  %2 = getelementptr inbounds nuw i8, ptr %0, i64 100
  store i32 256, ptr %2, align 4, !tbaa !30
  %3 = tail call noalias dereferenceable_or_null(6144) ptr @malloc(i64 noundef 6144) #11
  %4 = getelementptr inbounds nuw i8, ptr %0, i64 88
  store ptr %3, ptr %4, align 8, !tbaa !31
  %5 = tail call ptr @Amap_LibCreateObj(ptr noundef %0)
  %6 = load ptr, ptr %4, align 8, !tbaa !31
  %7 = load i32, ptr %6, align 8
  %8 = and i32 %7, 16777215
  %9 = or disjoint i32 %8, 33554432
  store i32 %9, ptr %6, align 8
  %10 = load ptr, ptr %4, align 8, !tbaa !31
  %11 = load i32, ptr %10, align 8
  %12 = and i32 %11, -16711681
  %13 = or disjoint i32 %12, 65536
  store i32 %13, ptr %10, align 8
  ret i32 0
}